; Function Attrs: mustprogress uwtable
define void @_ZN3net10SpdyDataIRC2EjN4base16BasicStringPieceINSt7__cxx1112basic_stringIcSt11char_traitsIcESaIcEEEEE(ptr noundef nonnull align 8 dereferenceable(48) initializes((0, 13), (16, 41), (44, 48)) %0, i32 noundef %1, ptr %2, i64 %3) unnamed_addr #0 align 2 personality ptr @__gxx_personality_v0 {
  %5 = getelementptr inbounds nuw i8, ptr %0, i64 8
  store i32 %1, ptr %5, align 8, !tbaa !13
  %6 = getelementptr inbounds nuw i8, ptr %0, i64 12
  store i8 0, ptr %6, align 4, !tbaa !17
  store ptr getelementptr inbounds nuw inrange(-16, 24) (i8, ptr @_ZTVN3net10SpdyDataIRE, i64 16), ptr %0, align 8, !tbaa !20
  %7 = getelementptr inbounds nuw i8, ptr %0, i64 16
  %8 = getelementptr inbounds nuw i8, ptr %0, i64 44
  store i32 0, ptr %8, align 4, !tbaa !22
  tail call void @llvm.memset.p0.i64(ptr noundef nonnull align 8 dereferenceable(25) %7, i8 0, i64 25, i1 false)
  invoke void @_ZN3net10SpdyDataIR11SetDataDeepEN4base16BasicStringPieceINSt7__cxx1112basic_stringIcSt11char_traitsIcESaIcEEEEE(ptr noundef nonnull align 8 dereferenceable(48) %0, ptr %2, i64 %3)
          to label %9 unwind label %10

9:                                                ; preds = %4
  ret void

10:                                               ; preds = %4
  %11 = landingpad { ptr, i32 }
          cleanup
  tail call void @_ZNSt10unique_ptrINSt7__cxx1112basic_stringIcSt11char_traitsIcESaIcEEESt14default_deleteIS5_EED2Ev(ptr noundef nonnull align 8 dereferenceable(8) %7) #22
  resume { ptr, i32 } %11
}